target datalayout = "e-m:e-p270:32:32-p271:32:32-p272:64:64-i64:64-i128:128-f80:128-n8:16:32:64-S128"
target triple = "x86_64-pc-linux-gnu"

@.str = private unnamed_addr constant [2 x i8] c"w\00", align 1

; Function Attrs: nounwind uwtable
define hidden i32 @cmsGetPostScriptCSA(ptr noundef %0, ptr noundef %1, i32 noundef %2, i32 noundef %3, ptr noundef %4, i32 noundef %5) #0 {
  %7 = alloca i32, align 4
  %8 = alloca ptr, align 8
  %9 = alloca ptr, align 8
  %10 = alloca i32, align 4
  %11 = alloca i32, align 4
  %12 = alloca ptr, align 8
  %13 = alloca i32, align 4
  %14 = alloca ptr, align 8
  %15 = alloca i32, align 4
  store ptr %0, ptr %8, align 8
  store ptr %1, ptr %9, align 8
  store i32 %2, ptr %10, align 4
  store i32 %3, ptr %11, align 4
  store ptr %4, ptr %12, align 8
  store i32 %5, ptr %13, align 4
  %16 = load ptr, ptr %12, align 8
  %17 = icmp eq ptr %16, null
  br i1 %17, label %18, label %21

18:                                               ; preds = %6
  %19 = load ptr, ptr %8, align 8
  %20 = call ptr @cmsOpenIOhandlerFromNULL(ptr noundef %19)
  store ptr %20, ptr %14, align 8
  br label %26

21:                                               ; preds = %6
  %22 = load ptr, ptr %8, align 8
  %23 = load ptr, ptr %12, align 8
  %24 = load i32, ptr %13, align 4
  %25 = call ptr @cmsOpenIOhandlerFromMem(ptr noundef %22, ptr noundef %23, i32 noundef %24, ptr noundef @.str)
  store ptr %25, ptr %14, align 8
  br label %26

26:                                               ; preds = %21, %18
  %27 = load ptr, ptr %14, align 8
  %28 = icmp ne ptr %27, null
  br i1 %28, label %30, label %29

29:                                               ; preds = %26
  store i32 0, ptr %7, align 4
  br label %40

30:                                               ; preds = %26
  %31 = load ptr, ptr %8, align 8
  %32 = load ptr, ptr %9, align 8
  %33 = load i32, ptr %10, align 4
  %34 = load i32, ptr %11, align 4
  %35 = load ptr, ptr %14, align 8
  %36 = call i32 @cmsGetPostScriptColorResource(ptr noundef %31, i32 noundef 0, ptr noundef %32, i32 noundef %33, i32 noundef %34, ptr noundef %35)
  store i32 %36, ptr %15, align 4
  %37 = load ptr, ptr %14, align 8
  %38 = call i32 @cmsCloseIOhandler(ptr noundef %37)
  %39 = load i32, ptr %15, align 4
  store i32 %39, ptr %7, align 4
  br label %40

40:                                               ; preds = %30, %29
  %41 = load i32, ptr %7, align 4
  ret i32 %41
}