; Function Attrs: nounwind uwtable
define hidden i32 @cmsGetPostScriptCSA(ptr noundef %0, ptr noundef %1, i32 noundef %2, i32 noundef %3, ptr noundef %4, i32 noundef %5) local_unnamed_addr #0 {
  %7 = icmp eq ptr %4, null
  br i1 %7, label %8, label %10

8:                                                ; preds = %6
  %9 = tail call ptr @cmsOpenIOhandlerFromNULL(ptr noundef %0) #9
  br label %12

10:                                               ; preds = %6
  %11 = tail call ptr @cmsOpenIOhandlerFromMem(ptr noundef %0, ptr noundef nonnull %4, i32 noundef %5, ptr noundef nonnull @.str) #9
  br label %12

12:                                               ; preds = %10, %8
  %.013 = phi ptr [ %9, %8 ], [ %11, %10 ]
  %.not = icmp eq ptr %.013, null
  br i1 %.not, label %16, label %13

13:                                               ; preds = %12
  %14 = tail call i32 @cmsGetPostScriptColorResource(ptr noundef %0, i32 noundef 0, ptr noundef %1, i32 noundef %2, i32 noundef %3, ptr noundef nonnull %.013)
  %15 = tail call i32 @cmsCloseIOhandler(ptr noundef nonnull %.013) #9
  br label %16

16:                                               ; preds = %12, %13
  %.0 = phi i32 [ %14, %13 ], [ 0, %12 ]
  ret i32 %.0
}